target datalayout = "e-m:e-p270:32:32-p271:32:32-p272:64:64-i64:64-i128:128-f80:128-n8:16:32:64-S128"
target triple = "x86_64-pc-linux-gnu"

@.str.9 = private unnamed_addr constant [25 x i8] c"../openssl/test/dhtest.c\00", align 1
@.str.20 = private unnamed_addr constant [25 x i8] c"i & DH_CHECK_P_NOT_PRIME\00", align 1
@.str.21 = private unnamed_addr constant [30 x i8] c"i & DH_CHECK_P_NOT_SAFE_PRIME\00", align 1
@.str.22 = private unnamed_addr constant [33 x i8] c"i & DH_UNABLE_TO_CHECK_GENERATOR\00", align 1
@.str.23 = private unnamed_addr constant [30 x i8] c"i & DH_NOT_SUITABLE_GENERATOR\00", align 1
@.str.29 = private unnamed_addr constant [2 x i8] c"i\00", align 1
@.str.63 = private unnamed_addr constant [28 x i8] c"abuf = OPENSSL_malloc(alen)\00", align 1
@.str.64 = private unnamed_addr constant [49 x i8] c"(aout = DH_compute_key(abuf, bpub_key, a)) != -1\00", align 1
@.str.65 = private unnamed_addr constant [28 x i8] c"bbuf = OPENSSL_malloc(blen)\00", align 1
@.str.66 = private unnamed_addr constant [49 x i8] c"(bout = DH_compute_key(bbuf, apub_key, b)) != -1\00", align 1
@.str.69 = private unnamed_addr constant [11 x i8] c"aout >= 20\00", align 1
@.str.70 = private unnamed_addr constant [5 x i8] c"abuf\00", align 1
@.str.71 = private unnamed_addr constant [5 x i8] c"bbuf\00", align 1
@.str.77 = private unnamed_addr constant [2 x i8] c"0\00", align 1
@.str.111 = private unnamed_addr constant [33 x i8] c"a = DH_new_by_nid(NID_ffdhe2048)\00", align 1
@.str.112 = private unnamed_addr constant [33 x i8] c"b = DH_new_by_nid(NID_ffdhe2048)\00", align 1
@.str.113 = private unnamed_addr constant [5 x i8] c"alen\00", align 1
@.str.114 = private unnamed_addr constant [5 x i8] c"blen\00", align 1

; Function Attrs: nounwind uwtable
define internal i32 @rfc7919_test() #0 {
  %1 = alloca ptr, align 8
  %2 = alloca ptr, align 8
  %3 = alloca ptr, align 8
  %4 = alloca ptr, align 8
  %5 = alloca ptr, align 8
  %6 = alloca ptr, align 8
  %7 = alloca i32, align 4
  %8 = alloca i32, align 4
  %9 = alloca i32, align 4
  %10 = alloca i32, align 4
  %11 = alloca i32, align 4
  %12 = alloca i32, align 4
  call void @llvm.lifetime.start.p0(i64 8, ptr %1) #3
  store ptr null, ptr %1, align 8, !tbaa !4
  call void @llvm.lifetime.start.p0(i64 8, ptr %2) #3
  store ptr null, ptr %2, align 8, !tbaa !4
  call void @llvm.lifetime.start.p0(i64 8, ptr %3) #3
  store ptr null, ptr %3, align 8, !tbaa !9
  call void @llvm.lifetime.start.p0(i64 8, ptr %4) #3
  store ptr null, ptr %4, align 8, !tbaa !9
  call void @llvm.lifetime.start.p0(i64 8, ptr %5) #3
  store ptr null, ptr %5, align 8, !tbaa !13
  call void @llvm.lifetime.start.p0(i64 8, ptr %6) #3
  store ptr null, ptr %6, align 8, !tbaa !13
  call void @llvm.lifetime.start.p0(i64 4, ptr %7) #3
  call void @llvm.lifetime.start.p0(i64 4, ptr %8) #3
  call void @llvm.lifetime.start.p0(i64 4, ptr %9) #3
  call void @llvm.lifetime.start.p0(i64 4, ptr %10) #3
  call void @llvm.lifetime.start.p0(i64 4, ptr %11) #3
  call void @llvm.lifetime.start.p0(i64 4, ptr %12) #3
  store i32 0, ptr %12, align 4, !tbaa !15
  %13 = call ptr @DH_new_by_nid(i32 noundef 1126)
  store ptr %13, ptr %1, align 8, !tbaa !4
  %14 = call i32 @test_ptr(ptr noundef @.str.9, i32 noundef 671, ptr noundef @.str.111, ptr noundef %13)
  %15 = icmp ne i32 %14, 0
  br i1 %15, label %17, label %16

16:                                               ; preds = %0
  br label %141

17:                                               ; preds = %0
  %18 = load ptr, ptr %1, align 8, !tbaa !4
  %19 = call i32 @DH_check(ptr noundef %18, ptr noundef %7)
  %20 = icmp ne i32 %19, 0
  br i1 %20, label %22, label %21

21:                                               ; preds = %17
  br label %141

22:                                               ; preds = %17
  %23 = load i32, ptr %7, align 4, !tbaa !15
  %24 = and i32 %23, 1
  %25 = icmp ne i32 %24, 0
  %26 = zext i1 %25 to i32
  %27 = call i32 @test_false(ptr noundef @.str.9, i32 noundef 676, ptr noundef @.str.20, i32 noundef %26)
  %28 = icmp ne i32 %27, 0
  br i1 %28, label %29, label %56

29:                                               ; preds = %22
  %30 = load i32, ptr %7, align 4, !tbaa !15
  %31 = and i32 %30, 2
  %32 = icmp ne i32 %31, 0
  %33 = zext i1 %32 to i32
  %34 = call i32 @test_false(ptr noundef @.str.9, i32 noundef 677, ptr noundef @.str.21, i32 noundef %33)
  %35 = icmp ne i32 %34, 0
  br i1 %35, label %36, label %56

36:                                               ; preds = %29
  %37 = load i32, ptr %7, align 4, !tbaa !15
  %38 = and i32 %37, 4
  %39 = icmp ne i32 %38, 0
  %40 = zext i1 %39 to i32
  %41 = call i32 @test_false(ptr noundef @.str.9, i32 noundef 678, ptr noundef @.str.22, i32 noundef %40)
  %42 = icmp ne i32 %41, 0
  br i1 %42, label %43, label %56

43:                                               ; preds = %36
  %44 = load i32, ptr %7, align 4, !tbaa !15
  %45 = and i32 %44, 8
  %46 = icmp ne i32 %45, 0
  %47 = zext i1 %46 to i32
  %48 = call i32 @test_false(ptr noundef @.str.9, i32 noundef 679, ptr noundef @.str.23, i32 noundef %47)
  %49 = icmp ne i32 %48, 0
  br i1 %49, label %50, label %56

50:                                               ; preds = %43
  %51 = load i32, ptr %7, align 4, !tbaa !15
  %52 = icmp ne i32 %51, 0
  %53 = zext i1 %52 to i32
  %54 = call i32 @test_false(ptr noundef @.str.9, i32 noundef 680, ptr noundef @.str.29, i32 noundef %53)
  %55 = icmp ne i32 %54, 0
  br i1 %55, label %57, label %56

56:                                               ; preds = %50, %43, %36, %29, %22
  br label %141

57:                                               ; preds = %50
  %58 = load ptr, ptr %1, align 8, !tbaa !4
  %59 = call i32 @DH_generate_key(ptr noundef %58)
  %60 = icmp ne i32 %59, 0
  br i1 %60, label %62, label %61

61:                                               ; preds = %57
  br label %141

62:                                               ; preds = %57
  %63 = load ptr, ptr %1, align 8, !tbaa !4
  call void @DH_get0_key(ptr noundef %63, ptr noundef %3, ptr noundef null)
  %64 = call ptr @DH_new_by_nid(i32 noundef 1126)
  store ptr %64, ptr %2, align 8, !tbaa !4
  %65 = call i32 @test_ptr(ptr noundef @.str.9, i32 noundef 688, ptr noundef @.str.112, ptr noundef %64)
  %66 = icmp ne i32 %65, 0
  br i1 %66, label %68, label %67

67:                                               ; preds = %62
  br label %141

68:                                               ; preds = %62
  %69 = load ptr, ptr %2, align 8, !tbaa !4
  %70 = call i32 @DH_generate_key(ptr noundef %69)
  %71 = icmp ne i32 %70, 0
  br i1 %71, label %73, label %72

72:                                               ; preds = %68
  br label %141

73:                                               ; preds = %68
  %74 = load ptr, ptr %2, align 8, !tbaa !4
  call void @DH_get0_key(ptr noundef %74, ptr noundef %4, ptr noundef null)
  %75 = load ptr, ptr %1, align 8, !tbaa !4
  %76 = call i32 @DH_size(ptr noundef %75)
  store i32 %76, ptr %8, align 4, !tbaa !15
  %77 = load i32, ptr %8, align 4, !tbaa !15
  %78 = call i32 @test_int_gt(ptr noundef @.str.9, i32 noundef 696, ptr noundef @.str.113, ptr noundef @.str.77, i32 noundef %77, i32 noundef 0)
  %79 = icmp ne i32 %78, 0
  br i1 %79, label %80, label %97

80:                                               ; preds = %73
  %81 = load i32, ptr %8, align 4, !tbaa !15
  %82 = sext i32 %81 to i64
  %83 = call noalias ptr @CRYPTO_malloc(i64 noundef %82, ptr noundef @.str.9, i32 noundef 696)
  store ptr %83, ptr %5, align 8, !tbaa !13
  %84 = call i32 @test_ptr(ptr noundef @.str.9, i32 noundef 696, ptr noundef @.str.63, ptr noundef %83)
  %85 = icmp ne i32 %84, 0
  br i1 %85, label %86, label %97

86:                                               ; preds = %80
  %87 = load ptr, ptr %5, align 8, !tbaa !13
  %88 = load ptr, ptr %4, align 8, !tbaa !9
  %89 = load ptr, ptr %1, align 8, !tbaa !4
  %90 = call i32 @DH_compute_key(ptr noundef %87, ptr noundef %88, ptr noundef %89)
  store i32 %90, ptr %10, align 4, !tbaa !15
  %91 = icmp ne i32 %90, -1
  %92 = zext i1 %91 to i32
  %93 = icmp ne i32 %92, 0
  %94 = zext i1 %93 to i32
  %95 = call i32 @test_true(ptr noundef @.str.9, i32 noundef 697, ptr noundef @.str.64, i32 noundef %94)
  %96 = icmp ne i32 %95, 0
  br i1 %96, label %98, label %97

97:                                               ; preds = %86, %80, %73
  br label %141

98:                                               ; preds = %86
  %99 = load ptr, ptr %2, align 8, !tbaa !4
  %100 = call i32 @DH_size(ptr noundef %99)
  store i32 %100, ptr %9, align 4, !tbaa !15
  %101 = load i32, ptr %9, align 4, !tbaa !15
  %102 = call i32 @test_int_gt(ptr noundef @.str.9, i32 noundef 701, ptr noundef @.str.114, ptr noundef @.str.77, i32 noundef %101, i32 noundef 0)
  %103 = icmp ne i32 %102, 0
  br i1 %103, label %104, label %121

104:                                              ; preds = %98
  %105 = load i32, ptr %9, align 4, !tbaa !15
  %106 = sext i32 %105 to i64
  %107 = call noalias ptr @CRYPTO_malloc(i64 noundef %106, ptr noundef @.str.9, i32 noundef 701)
  store ptr %107, ptr %6, align 8, !tbaa !13
  %108 = call i32 @test_ptr(ptr noundef @.str.9, i32 noundef 701, ptr noundef @.str.65, ptr noundef %107)
  %109 = icmp ne i32 %108, 0
  br i1 %109, label %110, label %121

110:                                              ; preds = %104
  %111 = load ptr, ptr %6, align 8, !tbaa !13
  %112 = load ptr, ptr %3, align 8, !tbaa !9
  %113 = load ptr, ptr %2, align 8, !tbaa !4
  %114 = call i32 @DH_compute_key(ptr noundef %111, ptr noundef %112, ptr noundef %113)
  store i32 %114, ptr %11, align 4, !tbaa !15
  %115 = icmp ne i32 %114, -1
  %116 = zext i1 %115 to i32
  %117 = icmp ne i32 %116, 0
  %118 = zext i1 %117 to i32
  %119 = call i32 @test_true(ptr noundef @.str.9, i32 noundef 702, ptr noundef @.str.66, i32 noundef %118)
  %120 = icmp ne i32 %119, 0
  br i1 %120, label %122, label %121

121:                                              ; preds = %110, %104, %98
  br label %141

122:                                              ; preds = %110
  %123 = load i32, ptr %10, align 4, !tbaa !15
  %124 = icmp sge i32 %123, 20
  %125 = zext i1 %124 to i32
  %126 = icmp ne i32 %125, 0
  %127 = zext i1 %126 to i32
  %128 = call i32 @test_true(ptr noundef @.str.9, i32 noundef 705, ptr noundef @.str.69, i32 noundef %127)
  %129 = icmp ne i32 %128, 0
  br i1 %129, label %130, label %139

130:                                              ; preds = %122
  %131 = load ptr, ptr %5, align 8, !tbaa !13
  %132 = load i32, ptr %10, align 4, !tbaa !15
  %133 = sext i32 %132 to i64
  %134 = load ptr, ptr %6, align 8, !tbaa !13
  %135 = load i32, ptr %11, align 4, !tbaa !15
  %136 = sext i32 %135 to i64
  %137 = call i32 @test_mem_eq(ptr noundef @.str.9, i32 noundef 706, ptr noundef @.str.70, ptr noundef @.str.71, ptr noundef %131, i64 noundef %133, ptr noundef %134, i64 noundef %136)
  %138 = icmp ne i32 %137, 0
  br i1 %138, label %140, label %139

139:                                              ; preds = %130, %122
  br label %141

140:                                              ; preds = %130
  store i32 1, ptr %12, align 4, !tbaa !15
  br label %141

141:                                              ; preds = %140, %139, %121, %97, %72, %67, %61, %56, %21, %16
  %142 = load ptr, ptr %5, align 8, !tbaa !13
  call void @CRYPTO_free(ptr noundef %142, ptr noundef @.str.9, i32 noundef 712)
  %143 = load ptr, ptr %6, align 8, !tbaa !13
  call void @CRYPTO_free(ptr noundef %143, ptr noundef @.str.9, i32 noundef 713)
  %144 = load ptr, ptr %1, align 8, !tbaa !4
  call void @DH_free(ptr noundef %144)
  %145 = load ptr, ptr %2, align 8, !tbaa !4
  call void @DH_free(ptr noundef %145)
  %146 = load i32, ptr %12, align 4, !tbaa !15
  call void @llvm.lifetime.end.p0(i64 4, ptr %12) #3
  call void @llvm.lifetime.end.p0(i64 4, ptr %11) #3
  call void @llvm.lifetime.end.p0(i64 4, ptr %10) #3
  call void @llvm.lifetime.end.p0(i64 4, ptr %9) #3
  call void @llvm.lifetime.end.p0(i64 4, ptr %8) #3
  call void @llvm.lifetime.end.p0(i64 4, ptr %7) #3
  call void @llvm.lifetime.end.p0(i64 8, ptr %6) #3
  call void @llvm.lifetime.end.p0(i64 8, ptr %5) #3
  call void @llvm.lifetime.end.p0(i64 8, ptr %4) #3
  call void @llvm.lifetime.end.p0(i64 8, ptr %3) #3
  call void @llvm.lifetime.end.p0(i64 8, ptr %2) #3
  call void @llvm.lifetime.end.p0(i64 8, ptr %1) #3
  ret i32 %146
}