; Function Attrs: nounwind uwtable
define internal range(i32 0, 2) i32 @rfc7919_test() #0 {
  %1 = alloca ptr, align 8
  %2 = alloca ptr, align 8
  %3 = alloca i32, align 4
  call void @llvm.lifetime.start.p0(i64 8, ptr nonnull %1) #4
  store ptr null, ptr %1, align 8, !tbaa !4
  call void @llvm.lifetime.start.p0(i64 8, ptr nonnull %2) #4
  store ptr null, ptr %2, align 8, !tbaa !4
  call void @llvm.lifetime.start.p0(i64 4, ptr nonnull %3) #4
  %4 = tail call ptr @DH_new_by_nid(i32 noundef 1126) #4
  %5 = tail call i32 @test_ptr(ptr noundef nonnull @.str.9, i32 noundef 671, ptr noundef nonnull @.str.111, ptr noundef %4) #4
  %.not = icmp eq i32 %5, 0
  br i1 %.not, label %70, label %6

6:                                                ; preds = %0
  %7 = call i32 @DH_check(ptr noundef %4, ptr noundef nonnull %3) #4
  %.not27 = icmp eq i32 %7, 0
  br i1 %.not27, label %70, label %8

8:                                                ; preds = %6
  %9 = load i32, ptr %3, align 4, !tbaa !9
  %10 = and i32 %9, 1
  %11 = call i32 @test_false(ptr noundef nonnull @.str.9, i32 noundef 676, ptr noundef nonnull @.str.20, i32 noundef %10) #4
  %.not28 = icmp eq i32 %11, 0
  br i1 %.not28, label %70, label %12

12:                                               ; preds = %8
  %13 = load i32, ptr %3, align 4, !tbaa !9
  %14 = lshr i32 %13, 1
  %.lobit = and i32 %14, 1
  %15 = call i32 @test_false(ptr noundef nonnull @.str.9, i32 noundef 677, ptr noundef nonnull @.str.21, i32 noundef %.lobit) #4
  %.not29 = icmp eq i32 %15, 0
  br i1 %.not29, label %70, label %16

16:                                               ; preds = %12
  %17 = load i32, ptr %3, align 4, !tbaa !9
  %18 = lshr i32 %17, 2
  %.lobit30 = and i32 %18, 1
  %19 = call i32 @test_false(ptr noundef nonnull @.str.9, i32 noundef 678, ptr noundef nonnull @.str.22, i32 noundef %.lobit30) #4
  %.not31 = icmp eq i32 %19, 0
  br i1 %.not31, label %70, label %20

20:                                               ; preds = %16
  %21 = load i32, ptr %3, align 4, !tbaa !9
  %22 = lshr i32 %21, 3
  %.lobit32 = and i32 %22, 1
  %23 = call i32 @test_false(ptr noundef nonnull @.str.9, i32 noundef 679, ptr noundef nonnull @.str.23, i32 noundef %.lobit32) #4
  %.not33 = icmp eq i32 %23, 0
  br i1 %.not33, label %70, label %24

24:                                               ; preds = %20
  %25 = load i32, ptr %3, align 4, !tbaa !9
  %26 = icmp ne i32 %25, 0
  %27 = zext i1 %26 to i32
  %28 = call i32 @test_false(ptr noundef nonnull @.str.9, i32 noundef 680, ptr noundef nonnull @.str.29, i32 noundef %27) #4
  %.not34 = icmp eq i32 %28, 0
  br i1 %.not34, label %70, label %29

29:                                               ; preds = %24
  %30 = call i32 @DH_generate_key(ptr noundef %4) #4
  %.not35 = icmp eq i32 %30, 0
  br i1 %.not35, label %70, label %31

31:                                               ; preds = %29
  call void @DH_get0_key(ptr noundef %4, ptr noundef nonnull %1, ptr noundef null) #4
  %32 = call ptr @DH_new_by_nid(i32 noundef 1126) #4
  %33 = call i32 @test_ptr(ptr noundef nonnull @.str.9, i32 noundef 688, ptr noundef nonnull @.str.112, ptr noundef %32) #4
  %.not36 = icmp eq i32 %33, 0
  br i1 %.not36, label %70, label %34

34:                                               ; preds = %31
  %35 = call i32 @DH_generate_key(ptr noundef %32) #4
  %.not37 = icmp eq i32 %35, 0
  br i1 %.not37, label %70, label %36

36:                                               ; preds = %34
  call void @DH_get0_key(ptr noundef %32, ptr noundef nonnull %2, ptr noundef null) #4
  %37 = call i32 @DH_size(ptr noundef %4) #4
  %38 = call i32 @test_int_gt(ptr noundef nonnull @.str.9, i32 noundef 696, ptr noundef nonnull @.str.113, ptr noundef nonnull @.str.77, i32 noundef %37, i32 noundef 0) #4
  %.not38 = icmp eq i32 %38, 0
  br i1 %.not38, label %70, label %39

39:                                               ; preds = %36
  %40 = sext i32 %37 to i64
  %41 = call noalias ptr @CRYPTO_malloc(i64 noundef %40, ptr noundef nonnull @.str.9, i32 noundef 696) #4
  %42 = call i32 @test_ptr(ptr noundef nonnull @.str.9, i32 noundef 696, ptr noundef nonnull @.str.63, ptr noundef %41) #4
  %.not39 = icmp eq i32 %42, 0
  br i1 %.not39, label %70, label %43

43:                                               ; preds = %39
  %44 = load ptr, ptr %2, align 8, !tbaa !4
  %45 = call i32 @DH_compute_key(ptr noundef %41, ptr noundef %44, ptr noundef %4) #4
  %46 = icmp ne i32 %45, -1
  %47 = zext i1 %46 to i32
  %48 = call i32 @test_true(ptr noundef nonnull @.str.9, i32 noundef 697, ptr noundef nonnull @.str.64, i32 noundef %47) #4
  %.not40 = icmp eq i32 %48, 0
  br i1 %.not40, label %70, label %49

49:                                               ; preds = %43
  %50 = call i32 @DH_size(ptr noundef %32) #4
  %51 = call i32 @test_int_gt(ptr noundef nonnull @.str.9, i32 noundef 701, ptr noundef nonnull @.str.114, ptr noundef nonnull @.str.77, i32 noundef %50, i32 noundef 0) #4
  %.not41 = icmp eq i32 %51, 0
  br i1 %.not41, label %70, label %52

52:                                               ; preds = %49
  %53 = sext i32 %50 to i64
  %54 = call noalias ptr @CRYPTO_malloc(i64 noundef %53, ptr noundef nonnull @.str.9, i32 noundef 701) #4
  %55 = call i32 @test_ptr(ptr noundef nonnull @.str.9, i32 noundef 701, ptr noundef nonnull @.str.65, ptr noundef %54) #4
  %.not42 = icmp eq i32 %55, 0
  br i1 %.not42, label %70, label %56

56:                                               ; preds = %52
  %57 = load ptr, ptr %1, align 8, !tbaa !4
  %58 = call i32 @DH_compute_key(ptr noundef %54, ptr noundef %57, ptr noundef %32) #4
  %59 = icmp ne i32 %58, -1
  %60 = zext i1 %59 to i32
  %61 = call i32 @test_true(ptr noundef nonnull @.str.9, i32 noundef 702, ptr noundef nonnull @.str.66, i32 noundef %60) #4
  %.not43 = icmp eq i32 %61, 0
  br i1 %.not43, label %70, label %62

62:                                               ; preds = %56
  %63 = icmp sgt i32 %45, 19
  %64 = zext i1 %63 to i32
  %65 = call i32 @test_true(ptr noundef nonnull @.str.9, i32 noundef 705, ptr noundef nonnull @.str.69, i32 noundef %64) #4
  %.not44 = icmp eq i32 %65, 0
  br i1 %.not44, label %70, label %66

66:                                               ; preds = %62
  %67 = sext i32 %45 to i64
  %68 = sext i32 %58 to i64
  %69 = call i32 @test_mem_eq(ptr noundef nonnull @.str.9, i32 noundef 706, ptr noundef nonnull @.str.70, ptr noundef nonnull @.str.71, ptr noundef %41, i64 noundef %67, ptr noundef %54, i64 noundef %68) #4
  %.not45 = icmp ne i32 %69, 0
  %spec.select = zext i1 %.not45 to i32
  br label %70

70:                                               ; preds = %66, %62, %49, %52, %56, %36, %39, %43, %34, %31, %29, %8, %12, %16, %20, %24, %6, %0
  %.026 = phi ptr [ %54, %62 ], [ %54, %56 ], [ %54, %52 ], [ null, %49 ], [ null, %43 ], [ null, %39 ], [ null, %36 ], [ null, %34 ], [ null, %31 ], [ null, %29 ], [ null, %24 ], [ null, %20 ], [ null, %16 ], [ null, %12 ], [ null, %8 ], [ null, %6 ], [ null, %0 ], [ %54, %66 ]
  %.025 = phi ptr [ %41, %62 ], [ %41, %56 ], [ %41, %52 ], [ %41, %49 ], [ %41, %43 ], [ %41, %39 ], [ null, %36 ], [ null, %34 ], [ null, %31 ], [ null, %29 ], [ null, %24 ], [ null, %20 ], [ null, %16 ], [ null, %12 ], [ null, %8 ], [ null, %6 ], [ null, %0 ], [ %41, %66 ]
  %.024 = phi ptr [ %32, %62 ], [ %32, %56 ], [ %32, %52 ], [ %32, %49 ], [ %32, %43 ], [ %32, %39 ], [ %32, %36 ], [ %32, %34 ], [ %32, %31 ], [ null, %29 ], [ null, %24 ], [ null, %20 ], [ null, %16 ], [ null, %12 ], [ null, %8 ], [ null, %6 ], [ null, %0 ], [ %32, %66 ]
  %.0 = phi i32 [ 0, %62 ], [ 0, %56 ], [ 0, %52 ], [ 0, %49 ], [ 0, %43 ], [ 0, %39 ], [ 0, %36 ], [ 0, %34 ], [ 0, %31 ], [ 0, %29 ], [ 0, %24 ], [ 0, %20 ], [ 0, %16 ], [ 0, %12 ], [ 0, %8 ], [ 0, %6 ], [ 0, %0 ], [ %spec.select, %66 ]
  call void @CRYPTO_free(ptr noundef %.025, ptr noundef nonnull @.str.9, i32 noundef 712) #4
  call void @CRYPTO_free(ptr noundef %.026, ptr noundef nonnull @.str.9, i32 noundef 713) #4
  call void @DH_free(ptr noundef %4) #4
  call void @DH_free(ptr noundef %.024) #4
  call void @llvm.lifetime.end.p0(i64 4, ptr nonnull %3) #4
  call void @llvm.lifetime.end.p0(i64 8, ptr nonnull %2) #4
  call void @llvm.lifetime.end.p0(i64 8, ptr nonnull %1) #4
  ret i32 %.0
}